target datalayout = "e-m:e-p270:32:32-p271:32:32-p272:64:64-i64:64-i128:128-f80:128-n8:16:32:64-S128"
target triple = "x86_64-pc-linux-gnu"

%"class.clang::LinkageInfo" = type { i8 }

; Function Attrs: mustprogress nounwind uwtable
define linkonce_odr hidden noundef i32 @_ZNK5clang11LinkageInfo13getVisibilityEv(ptr noundef nonnull align 1 dereferenceable(1) %0) #0 comdat align 2 {
  %2 = alloca ptr, align 8
  store ptr %0, ptr %2, align 8
  %3 = load ptr, ptr %2, align 8
  %4 = load i8, ptr %3, align 1
  %5 = lshr i8 %4, 3
  %6 = and i8 %5, 3
  %7 = zext i8 %6 to i32
  ret i32 %7
}

; Function Attrs: mustprogress nounwind uwtable
define linkonce_odr hidden noundef i32 @_ZNK5clang9NamedDecl13getVisibilityEv(ptr noundef nonnull align 8 dereferenceable(48) %0) #0 comdat align 2 {
  %2 = alloca ptr, align 8
  %3 = alloca %"class.clang::LinkageInfo", align 1
  store ptr %0, ptr %2, align 8
  %4 = load ptr, ptr %2, align 8
  %5 = call i8 @_ZNK5clang9NamedDecl23getLinkageAndVisibilityEv(ptr noundef nonnull align 8 dereferenceable(48) %4)
  %6 = getelementptr inbounds nuw %"class.clang::LinkageInfo", ptr %3, i32 0, i32 0
  store i8 %5, ptr %6, align 1
  %7 = call noundef i32 @_ZNK5clang11LinkageInfo13getVisibilityEv(ptr noundef nonnull align 1 dereferenceable(1) %3)
  ret i32 %7
}

; Function Attrs: mustprogress nounwind uwtable
define internal noundef i32 @_ZN5clang10installapiL16getVTableLinkageEPKNS_13CXXRecordDeclE(ptr noundef %0) #0 {
  %2 = alloca i32, align 4
  %3 = alloca ptr, align 8
  %4 = alloca ptr, align 8
  store ptr %0, ptr %3, align 8
  %5 = load ptr, ptr %3, align 8
  %6 = call noundef i32 @_ZNK5clang9NamedDecl13getVisibilityEv(ptr noundef nonnull align 8 dereferenceable(48) %5)
  %7 = icmp eq i32 %6, 0
  br i1 %7, label %8, label %9

8:                                                ; preds = %1
  store i32 3, ptr %2, align 4
  br label %34

9:                                                ; preds = %1
  %10 = load ptr, ptr %3, align 8
  %11 = call noundef nonnull align 8 dereferenceable(23096) ptr @_ZNK5clang4Decl13getASTContextEv(ptr noundef nonnull align 8 dereferenceable(33) %10) #15
  %12 = load ptr, ptr %3, align 8
  %13 = call noundef ptr @_ZN5clang10ASTContext21getCurrentKeyFunctionEPKNS_13CXXRecordDeclE(ptr noundef nonnull align 8 dereferenceable(23096) %11, ptr noundef %12)
  store ptr %13, ptr %4, align 8
  %14 = load ptr, ptr %4, align 8
  %15 = icmp ne ptr %14, null
  br i1 %15, label %16, label %28

16:                                               ; preds = %9
  %17 = load ptr, ptr %4, align 8
  %18 = call noundef i32 @_ZNK5clang12FunctionDecl29getTemplateSpecializationKindEv(ptr noundef nonnull align 8 dereferenceable(168) %17)
  switch i32 %18, label %27 [
    i32 0, label %19
    i32 2, label %19
    i32 1, label %24
    i32 4, label %25
    i32 3, label %26
  ]

19:                                               ; preds = %16, %16
  %20 = load ptr, ptr %4, align 8
  %21 = call noundef zeroext i1 @_ZN5clang10installapiL9isInlinedEPKNS_12FunctionDeclE(ptr noundef %20)
  br i1 %21, label %22, label %23

22:                                               ; preds = %19
  store i32 1, ptr %2, align 4
  br label %34

23:                                               ; preds = %19
  store i32 0, ptr %2, align 4
  br label %34

24:                                               ; preds = %16
  unreachable

25:                                               ; preds = %16
  store i32 2, ptr %2, align 4
  br label %34

26:                                               ; preds = %16
  unreachable

27:                                               ; preds = %16
  br label %28

28:                                               ; preds = %27, %9
  %29 = load ptr, ptr %3, align 8
  %30 = call noundef i32 @_ZNK5clang13CXXRecordDecl29getTemplateSpecializationKindEv(ptr noundef nonnull align 8 dereferenceable(144) %29)
  switch i32 %30, label %33 [
    i32 0, label %31
    i32 2, label %31
    i32 1, label %31
    i32 3, label %32
    i32 4, label %32
  ]

31:                                               ; preds = %28, %28, %28
  store i32 1, ptr %2, align 4
  br label %34

32:                                               ; preds = %28, %28
  store i32 2, ptr %2, align 4
  br label %34

33:                                               ; preds = %28
  unreachable

34:                                               ; preds = %32, %31, %25, %23, %22, %8
  %35 = load i32, ptr %2, align 4
  ret i32 %35
}