; Function Attrs: mustprogress nounwind uwtable
define internal fastcc noundef range(i32 0, 4) i32 @_ZN5clang10installapiL16getVTableLinkageEPKNS_13CXXRecordDeclE(ptr noundef nonnull %0) unnamed_addr #0 {
  %2 = tail call i8 @_ZNK5clang9NamedDecl23getLinkageAndVisibilityEv(ptr noundef nonnull align 8 dereferenceable(48) %0) #16
  %3 = and i8 %2, 24
  %4 = icmp eq i8 %3, 0
  br i1 %4, label %14, label %5

5:                                                ; preds = %1
  %6 = tail call noundef nonnull align 8 dereferenceable(23096) ptr @_ZNK5clang4Decl13getASTContextEv(ptr noundef nonnull align 8 dereferenceable(33) %0) #17
  %7 = tail call noundef ptr @_ZN5clang10ASTContext21getCurrentKeyFunctionEPKNS_13CXXRecordDeclE(ptr noundef nonnull align 8 dereferenceable(23096) %6, ptr noundef nonnull %0) #16
  %.not = icmp eq ptr %7, null
  br i1 %.not, label %12, label %8

8:                                                ; preds = %5
  %9 = tail call noundef i32 @_ZNK5clang12FunctionDecl29getTemplateSpecializationKindEv(ptr noundef nonnull align 8 dereferenceable(168) %7) #16
  switch i32 %9, label %12 [
    i32 0, label %10
    i32 2, label %10
    i32 4, label %14
  ]

10:                                               ; preds = %8, %8
  %11 = tail call fastcc noundef zeroext i1 @_ZN5clang10installapiL9isInlinedEPKNS_12FunctionDeclE(ptr noundef nonnull %7)
  %. = zext i1 %11 to i32
  br label %14

12:                                               ; preds = %8, %5
  %13 = tail call noundef i32 @_ZNK5clang13CXXRecordDecl29getTemplateSpecializationKindEv(ptr noundef nonnull align 8 dereferenceable(144) %0) #16
  %switch.inv = icmp ugt i32 %13, 2
  %.8 = select i1 %switch.inv, i32 2, i32 1
  br label %14

14:                                               ; preds = %12, %8, %10, %1
  %.0 = phi i32 [ 3, %1 ], [ %., %10 ], [ 2, %8 ], [ %.8, %12 ]
  ret i32 %.0
}